target datalayout = "e-m:e-p270:32:32-p271:32:32-p272:64:64-i64:64-i128:128-f80:128-n8:16:32:64-S128"
target triple = "x86_64-pc-linux-gnu"

@H5PL_num_paths_g = internal global i32 0, align 4
@H5PL_paths_g = internal global ptr null, align 8

; Function Attrs: nounwind uwtable
define i32 @H5PL__close_path_table() #0 {
  %1 = alloca i32, align 4
  %2 = alloca i32, align 4
  store i32 0, ptr %2, align 4
  store i32 0, ptr %1, align 4
  br label %3

3:                                                ; preds = %26, %0
  %4 = load i32, ptr %1, align 4
  %5 = load i32, ptr @H5PL_num_paths_g, align 4
  %6 = icmp ult i32 %4, %5
  br i1 %6, label %7, label %29

7:                                                ; preds = %3
  %8 = load ptr, ptr @H5PL_paths_g, align 8
  %9 = load i32, ptr %1, align 4
  %10 = zext i32 %9 to i64
  %11 = getelementptr inbounds ptr, ptr %8, i64 %10
  %12 = load ptr, ptr %11, align 8
  %13 = icmp ne ptr %12, null
  br i1 %13, label %14, label %25

14:                                               ; preds = %7
  %15 = load ptr, ptr @H5PL_paths_g, align 8
  %16 = load i32, ptr %1, align 4
  %17 = zext i32 %16 to i64
  %18 = getelementptr inbounds ptr, ptr %15, i64 %17
  %19 = load ptr, ptr %18, align 8
  %20 = call ptr @H5MM_xfree(ptr noundef %19)
  %21 = load ptr, ptr @H5PL_paths_g, align 8
  %22 = load i32, ptr %1, align 4
  %23 = zext i32 %22 to i64
  %24 = getelementptr inbounds ptr, ptr %21, i64 %23
  store ptr %20, ptr %24, align 8
  br label %25

25:                                               ; preds = %14, %7
  br label %26

26:                                               ; preds = %25
  %27 = load i32, ptr %1, align 4
  %28 = add i32 %27, 1
  store i32 %28, ptr %1, align 4
  br label %3

29:                                               ; preds = %3
  %30 = load ptr, ptr @H5PL_paths_g, align 8
  %31 = call ptr @H5MM_xfree(ptr noundef %30)
  store ptr %31, ptr @H5PL_paths_g, align 8
  store i32 0, ptr @H5PL_num_paths_g, align 4
  %32 = load i32, ptr %2, align 4
  ret i32 %32
}