; Function Attrs: nounwind uwtable
define noundef i32 @H5PL__close_path_table() local_unnamed_addr #0 {
  %1 = load i32, ptr @H5PL_num_paths_g, align 4
  %.not8 = icmp eq i32 %1, 0
  %.pre11 = load ptr, ptr @H5PL_paths_g, align 8
  br i1 %.not8, label %._crit_edge, label %.lr.ph

.lr.ph:                                           ; preds = %0, %10
  %2 = phi i32 [ %11, %10 ], [ %1, %0 ]
  %3 = phi ptr [ %12, %10 ], [ %.pre11, %0 ]
  %indvars.iv = phi i64 [ %indvars.iv.next, %10 ], [ 0, %0 ]
  %4 = getelementptr inbounds ptr, ptr %3, i64 %indvars.iv
  %5 = load ptr, ptr %4, align 8
  %.not = icmp eq ptr %5, null
  br i1 %.not, label %10, label %6

6:                                                ; preds = %.lr.ph
  %7 = tail call ptr @H5MM_xfree(ptr noundef nonnull %5) #13
  %8 = load ptr, ptr @H5PL_paths_g, align 8
  %9 = getelementptr inbounds ptr, ptr %8, i64 %indvars.iv
  store ptr %7, ptr %9, align 8
  %.pre10 = load i32, ptr @H5PL_num_paths_g, align 4
  br label %10

10:                                               ; preds = %.lr.ph, %6
  %11 = phi i32 [ %2, %.lr.ph ], [ %.pre10, %6 ]
  %12 = phi ptr [ %3, %.lr.ph ], [ %8, %6 ]
  %indvars.iv.next = add nuw nsw i64 %indvars.iv, 1
  %13 = zext i32 %11 to i64
  %14 = icmp ult i64 %indvars.iv.next, %13
  br i1 %14, label %.lr.ph, label %._crit_edge

._crit_edge:                                      ; preds = %10, %0
  %15 = phi ptr [ %.pre11, %0 ], [ %12, %10 ]
  %16 = tail call ptr @H5MM_xfree(ptr noundef %15) #13
  store ptr %16, ptr @H5PL_paths_g, align 8
  store i32 0, ptr @H5PL_num_paths_g, align 4
  ret i32 0
}